; Function Attrs: mustprogress uwtable
define void @_ZN25PickedPointTreeWidgetItem7getNameEv(ptr dead_on_unwind noalias writable sret(%class.QString) align 8 %0, ptr noundef nonnull align 8 dereferenceable(85) %1) local_unnamed_addr #9 align 2 personality ptr @__gxx_personality_v0 {
  %3 = alloca %class.QVariant, align 8
  call void @llvm.lifetime.start.p0(i64 16, ptr nonnull %3)
  %4 = load ptr, ptr %1, align 8, !noalias !10
  %5 = getelementptr inbounds i8, ptr %4, i64 24
  %6 = load ptr, ptr %5, align 8, !noalias !10
  call void %6(ptr dead_on_unwind nonnull writable sret(%class.QVariant) align 8 %3, ptr noundef nonnull align 8 dereferenceable(60) %1, i32 noundef 0, i32 noundef 0), !noalias !10
  invoke void @_ZNK8QVariant8toStringEv(ptr dead_on_unwind writable sret(%class.QString) align 8 %0, ptr noundef nonnull align 8 dereferenceable(16) %3)
          to label %_ZNK15QTreeWidgetItem4textEi.exit unwind label %7

7:                                                ; preds = %2
  %8 = landingpad { ptr, i32 }
          cleanup
  call void @_ZN8QVariantD1Ev(ptr noundef nonnull align 8 dereferenceable(16) %3) #27
  resume { ptr, i32 } %8

_ZNK15QTreeWidgetItem4textEi.exit:                ; preds = %2
  call void @_ZN8QVariantD1Ev(ptr noundef nonnull align 8 dereferenceable(16) %3) #27
  call void @llvm.lifetime.end.p0(i64 16, ptr nonnull %3)
  ret void
}